target datalayout = "e-m:e-p270:32:32-p271:32:32-p272:64:64-i64:64-i128:128-f80:128-n8:16:32:64-S128"
target triple = "x86_64-pc-linux-gnu"

; Function Attrs: nounwind uwtable
define dso_local i32 @ACLGetCommandBitCoordinates(i64 noundef %0, ptr noundef %1, ptr noundef %2) #0 {
  %4 = alloca i32, align 4
  %5 = alloca i64, align 8
  %6 = alloca ptr, align 8
  %7 = alloca ptr, align 8
  store i64 %0, ptr %5, align 8, !tbaa !10
  store ptr %1, ptr %6, align 8, !tbaa !105
  store ptr %2, ptr %7, align 8, !tbaa !105
  %8 = load i64, ptr %5, align 8, !tbaa !10
  %9 = icmp uge i64 %8, 1024
  br i1 %9, label %10, label %11

10:                                               ; preds = %3
  store i32 -1, ptr %4, align 4
  br label %20

11:                                               ; preds = %3
  %12 = load i64, ptr %5, align 8, !tbaa !10
  %13 = udiv i64 %12, 8
  %14 = udiv i64 %13, 8
  %15 = load ptr, ptr %6, align 8, !tbaa !105
  store i64 %14, ptr %15, align 8, !tbaa !10
  %16 = load i64, ptr %5, align 8, !tbaa !10
  %17 = urem i64 %16, 64
  %18 = shl i64 1, %17
  %19 = load ptr, ptr %7, align 8, !tbaa !105
  store i64 %18, ptr %19, align 8, !tbaa !10
  store i32 0, ptr %4, align 4
  br label %20

20:                                               ; preds = %11, %10
  %21 = load i32, ptr %4, align 4
  ret i32 %21
}