; Function Attrs: mustprogress nofree norecurse nosync nounwind willreturn memory(argmem: write) uwtable
define dso_local range(i32 -1, 1) i32 @ACLGetCommandBitCoordinates(i64 noundef %0, ptr noundef writeonly captures(none) %1, ptr noundef writeonly captures(none) %2) local_unnamed_addr #14 {
  %4 = icmp ugt i64 %0, 1023
  br i1 %4, label %9, label %5

5:                                                ; preds = %3
  %6 = lshr i64 %0, 6
  store i64 %6, ptr %1, align 8, !tbaa !5
  %7 = and i64 %0, 63
  %8 = shl nuw i64 1, %7
  store i64 %8, ptr %2, align 8, !tbaa !5
  br label %9

9:                                                ; preds = %3, %5
  %.0 = phi i32 [ 0, %5 ], [ -1, %3 ]
  ret i32 %.0
}